(dp1
S'output'
p2
S"<type 'exceptions.ValueError'> insecure string pickle"
p3
sS'layer'
p4
S'C:\\Users\\Pranav Salunke\\Documents\\__School Work College\\2017-18\\Quarter 3 (Spring)\\CMPS 183\\Xplo\\web2py\\applications\\XploAPP\\models\\tables.py'
p5
sS'code'
p6
S'<code object <module> at 0ACE13C8, file "C:\\Users\\Pranav Salunke\\Documents\\__School Work College\\2017-18\\Quarter 3 (Spring)\\CMPS 183\\Xplo\\web2py\\applications\\XploAPP\\models\\tables.py", line 10>'
p7
sS'snapshot'
p8
(dp9
S'exception'
p10
(dp11
S'__getslice__'
p12
S"<method-wrapper '__getslice__' of exceptions.ValueError object>"
p13
sS'__str__'
p14
S"<method-wrapper '__str__' of exceptions.ValueError object>"
p15
sS'__reduce__'
p16
S'<built-in method __reduce__ of exceptions.ValueError object>'
p17
sS'__dict__'
p18
S'{}'
p19
sS'message'
p20
S"'insecure string pickle'"
p21
sS'__sizeof__'
p22
S'<built-in method __sizeof__ of exceptions.ValueError object>'
p23
sS'__init__'
p24
S"<method-wrapper '__init__' of exceptions.ValueError object>"
p25
sS'__setattr__'
p26
S"<method-wrapper '__setattr__' of exceptions.ValueError object>"
p27
sS'__reduce_ex__'
p28
S'<built-in method __reduce_ex__ of exceptions.ValueError object>'
p29
sS'__new__'
p30
S'<built-in method __new__ of type object>'
p31
sS'__format__'
p32
S'<built-in method __format__ of exceptions.ValueError object>'
p33
sS'__class__'
p34
S"<type 'exceptions.ValueError'>"
p35
sS'__doc__'
p36
S"'Inappropriate argument value (of correct type).'"
p37
sS'__getitem__'
p38
S"<method-wrapper '__getitem__' of exceptions.ValueError object>"
p39
sS'__setstate__'
p40
S'<built-in method __setstate__ of exceptions.ValueError object>'
p41
sS'__getattribute__'
p42
S"<method-wrapper '__getattribute__' of exceptions.ValueError object>"
p43
sS'args'
p44
S"('insecure string pickle',)"
p45
sS'__subclasshook__'
p46
S'<built-in method __subclasshook__ of type object>'
p47
sS'__unicode__'
p48
S'<built-in method __unicode__ of exceptions.ValueError object>'
p49
sS'__delattr__'
p50
S"<method-wrapper '__delattr__' of exceptions.ValueError object>"
p51
sS'__repr__'
p52
S"<method-wrapper '__repr__' of exceptions.ValueError object>"
p53
sS'__hash__'
p54
S"<method-wrapper '__hash__' of exceptions.ValueError object>"
p55
ssS'evalue'
p56
S'insecure string pickle'
p57
sS'request'
p58
cgluon.html
XML_unpickle
p59
(S's\x8c\\\x00\x00<div><table><tr><td style="font-weight:bold;vertical-align:top;">ajax</td><td style="vertical-align:top;">:</td><td><div>False</div></td></tr><tr><td style="font-weight:bold;vertical-align:top;">application</td><td style="vertical-align:top;">:</td><td><div>XploAPP</div></td></tr><tr><td style="font-weight:bold;vertical-align:top;">args</td><td style="vertical-align:top;">:</td><td><div><table></table></div></td></tr><tr><td style="font-weight:bold;vertical-align:top;">cid</td><td style="vertical-align:top;">:</td><td><div>None</div></td></tr><tr><td style="font-weight:bold;vertical-align:top;">client</td><td style="vertical-align:top;">:</td><td><div>127.0.0.1</div></td></tr><tr><td style="font-weight:bold;vertical-align:top;">controller</td><td style="vertical-align:top;">:</td><td><div>default</div></td></tr><tr><td style="font-weight:bold;vertical-align:top;">cookies</td><td style="vertical-align:top;">:</td><td><div><table><tr><td style="font-weight:bold;vertical-align:top;">session_id_welcome</td><td style="vertical-align:top;">:</td><td><div>127.0.0.1-1f1949df-37ba-47f4-bc80-4207fad7abac<table><tr><td style="font-weight:bold;vertical-align:top;">comment</td><td style="vertical-align:top;">:</td><td><div></div></td></tr><tr><td style="font-weight:bold;vertical-align:top;">domain</td><td style="vertical-align:top;">:</td><td><div></div></td></tr><tr><td style="font-weight:bold;vertical-align:top;">expires</td><td style="vertical-align:top;">:</td><td><div></div></td></tr><tr><td style="font-weight:bold;vertical-align:top;">httponly</td><td style="vertical-align:top;">:</td><td><div></div></td></tr><tr><td style="font-weight:bold;vertical-align:top;">max-age</td><td style="vertical-align:top;">:</td><td><div></div></td></tr><tr><td style="font-weight:bold;vertical-align:top;">path</td><td style="vertical-align:top;">:</td><td><div></div></td></tr><tr><td style="font-weight:bold;vertical-align:top;">secure</td><td style="vertical-align:top;">:</td><td><div></div></td></tr><tr><td style="font-weight:bold;vertical-align:top;">version</td><td style="vertical-align:top;">:</td><td><div></div></td></tr></table></div></td></tr><tr><td style="font-weight:bold;vertical-align:top;">session_id_xploapp</td><td style="vertical-align:top;">:</td><td><div>1:8966b123-7883-4923-89d8-6a17c05e18a0<table><tr><td style="font-weight:bold;vertical-align:top;">comment</td><td style="vertical-align:top;">:</td><td><div></div></td></tr><tr><td style="font-weight:bold;vertical-align:top;">domain</td><td style="vertical-align:top;">:</td><td><div></div></td></tr><tr><td style="font-weight:bold;vertical-align:top;">expires</td><td style="vertical-align:top;">:</td><td><div></div></td></tr><tr><td style="font-weight:bold;vertical-align:top;">httponly</td><td style="vertical-align:top;">:</td><td><div></div></td></tr><tr><td style="font-weight:bold;vertical-align:top;">max-age</td><td style="vertical-align:top;">:</td><td><div></div></td></tr><tr><td style="font-weight:bold;vertical-align:top;">path</td><td style="vertical-align:top;">:</td><td><div></div></td></tr><tr><td style="font-weight:bold;vertical-align:top;">secure</td><td style="vertical-align:top;">:</td><td><div></div></td></tr><tr><td style="font-weight:bold;vertical-align:top;">version</td><td style="vertical-align:top;">:</td><td><div></div></td></tr></table></div></td></tr></table></div></td></tr><tr><td style="font-weight:bold;vertical-align:top;">env</td><td style="vertical-align:top;">:</td><td><div><table><tr><td style="font-weight:bold;vertical-align:top;">HTTP_ACCEPT</td><td style="vertical-align:top;">:</td><td><div>text/html,application/xhtml+xml,application/xml;q=0.9,image/webp,image/apng,*/*;q=0.8</div></td></tr><tr><td style="font-weight:bold;vertical-align:top;">HTTP_ACCEPT_ENCODING</td><td style="vertical-align:top;">:</td><td><div>gzip, deflate, br</div></td></tr><tr><td style="font-weight:bold;vertical-align:top;">HTTP_ACCEPT_LANGUAGE</td><td style="vertical-align:top;">:</td><td><div>en-US,en;q=0.9</div></td></tr><tr><td style="font-weight:bold;vertical-align:top;">HTTP_CACHE_CONTROL</td><td style="vertical-align:top;">:</td><td><div>no-cache</div></td></tr><tr><td style="font-weight:bold;vertical-align:top;">HTTP_CONNECTION</td><td style="vertical-align:top;">:</td><td><div>keep-alive</div></td></tr><tr><td style="font-weight:bold;vertical-align:top;">HTTP_COOKIE</td><td style="vertical-align:top;">:</td><td><div>session_id_welcome=127.0.0.1-1f1949df-37ba-47f4-bc80-4207fad7abac; session_id_xploapp=&quot;1:8966b123-7883-4923-89d8-6a17c05e18a0&quot;</div></td></tr><tr><td style="font-weight:bold;vertical-align:top;">HTTP_HOST</td><td style="vertical-align:top;">:</td><td><div>127.0.0.1:8000</div></td></tr><tr><td style="font-weight:bold;vertical-align:top;">HTTP_PRAGMA</td><td style="vertical-align:top;">:</td><td><div>no-cache</div></td></tr><tr><td style="font-weight:bold;vertical-align:top;">HTTP_UPGRADE_INSECURE_REQUESTS</td><td style="vertical-align:top;">:</td><td><div>1</div></td></tr><tr><td style="font-weight:bold;vertical-align:top;">HTTP_USER_AGENT</td><td style="vertical-align:top;">:</td><td><div>Mozilla/5.0 (Windows NT 10.0; Win64; x64) AppleWebKit/537.36 (KHTML, like Gecko) Chrome/67.0.3396.79 Safari/537.36</div></td></tr><tr><td style="font-weight:bold;vertical-align:top;">PATH_INFO</td><td style="vertical-align:top;">:</td><td><div>/XploAPP/default/index</div></td></tr><tr><td style="font-weight:bold;vertical-align:top;">QUERY_STRING</td><td style="vertical-align:top;">:</td><td><div></div></td></tr><tr><td style="font-weight:bold;vertical-align:top;">REMOTE_ADDR</td><td style="vertical-align:top;">:</td><td><div>127.0.0.1</div></td></tr><tr><td style="font-weight:bold;vertical-align:top;">REMOTE_PORT</td><td style="vertical-align:top;">:</td><td><div>50443</div></td></tr><tr><td style="font-weight:bold;vertical-align:top;">REQUEST_METHOD</td><td style="vertical-align:top;">:</td><td><div>GET</div></td></tr><tr><td style="font-weight:bold;vertical-align:top;">SCRIPT_NAME</td><td style="vertical-align:top;">:</td><td><div></div></td></tr><tr><td style="font-weight:bold;vertical-align:top;">SERVER_NAME</td><td style="vertical-align:top;">:</td><td><div>DESKTOP-SIUTFAT</div></td></tr><tr><td style="font-weight:bold;vertical-align:top;">SERVER_PORT</td><td style="vertical-align:top;">:</td><td><div>8000</div></td></tr><tr><td style="font-weight:bold;vertical-align:top;">SERVER_PROTOCOL</td><td style="vertical-align:top;">:</td><td><div>HTTP/1.1</div></td></tr><tr><td style="font-weight:bold;vertical-align:top;">SERVER_SOFTWARE</td><td style="vertical-align:top;">:</td><td><div>Rocket 1.2.6</div></td></tr><tr><td style="font-weight:bold;vertical-align:top;">app_folders</td><td style="vertical-align:top;">:</td><td><div>set([&#x27;C:\\\\Users\\\\Pranav Salunke\\\\Documents\\\\__School Work College\\\\2017-18\\\\Quarter 3 (Spring)\\\\CMPS 183\\\\Xplo\\\\web2py\\\\applications\\\\XploAPP\\\\&#x27;, &#x27;C:\\\\Users\\\\Pranav Salunke\\\\Documents\\\\__School Work College\\\\2017-18\\\\Quarter 3 (Spring)\\\\CMPS 183\\\\Xplo\\\\web2py\\\\applications\\\\welcome\\\\&#x27;])</div></td></tr><tr><td style="font-weight:bold;vertical-align:top;">applications_parent</td><td style="vertical-align:top;">:</td><td><div>C:\\Users\\Pranav Salunke\\Documents\\__School Work College\\2017-18\\Quarter 3 (Spring)\\CMPS 183\\Xplo\\web2py</div></td></tr><tr><td style="font-weight:bold;vertical-align:top;">cmd_args</td><td style="vertical-align:top;">:</td><td><div><table></table></div></td></tr><tr><td style="font-weight:bold;vertical-align:top;">cmd_options</td><td style="vertical-align:top;">:</td><td><div>&lt;Values at 0x3f03440: {&#x27;verbose&#x27;: False, &#x27;ip&#x27;: &#x27;127.0.0.1&#x27;, &#x27;debuglevel&#x27;: 30, &#x27;with_scheduler&#x27;: False, &#x27;shutdown_timeout&#x27;: 5, &#x27;taskbar&#x27;: False, &#x27;with_coverage&#x27;: False, &#x27;pid_filename&#x27;: &#x27;httpserver.pid&#x27;, &#x27;maxthreads&#x27;: None, &#x27;softcron&#x27;: False, &#x27;server_name&#x27;: &#x27;DESKTOP-SIUTFAT&#x27;, &#x27;bpython&#x27;: False, &#x27;nogui&#x27;: False, &#x27;port&#x27;: 8000, &#x27;print_errors&#x27;: True, &#x27;extcron&#x27;: False, &#x27;runcron&#x27;: False, &#x27;run_system_tests&#x27;: False, &#x27;test&#x27;: None, &#x27;folder&#x27;: &#x27;C:\\\\Users\\\\Pranav Salunke\\\\Documents\\\\__School Work College\\\\2017-18\\\\Quarter 3 (Spring)\\\\CMPS 183\\\\Xplo\\\\web2py&#x27;, &#x27;config&#x27;: &#x27;&#x27;, &#x27;minthreads&#x27;: None, &#x27;shell&#x27;: None, &#x27;run&#x27;: &#x27;&#x27;, &#x27;log_filename&#x27;: &#x27;httpserver.log&#x27;, &#x27;profiler_dir&#x27;: None, &#x27;args&#x27;: [&#x27;&#x27;], &#x27;socket_timeout&#x27;: 5, &#x27;ssl_ca_certificate&#x27;: None, &#x27;scheduler&#x27;: None, &#x27;interfaces&#x27;: None, &#x27;ssl_private_key&#x27;: &#x27;&#x27;, &#x27;gae&#x27;: None, &#x27;password&#x27;: &#x27;******&#x27;, &#x27;request_queue_size&#x27;: 5, &#x27;ssl_certificate&#x27;: &#x27;&#x27;, &#x27;cronjob&#x27;: False, &#x27;numthreads&#x27;: None, &#x27;quiet&#x27;: False, &#x27;import_models&#x27;: False, &#x27;timeout&#x27;: 10, &#x27;plain&#x27;: False, &#x27;nobanner&#x27;: False}&gt;</div></td></tr><tr><td style="font-weight:bold;vertical-align:top;">db_sessions</td><td style="vertical-align:top;">:</td><td><div>set([&#x27;XploAPP&#x27;])</div></td></tr><tr><td style="font-weight:bold;vertical-align:top;">debugging</td><td style="vertical-align:top;">:</td><td><div>False</div></td></tr><tr><td style="font-weight:bold;vertical-align:top;">gluon_parent</td><td style="vertical-align:top;">:</td><td><div>C:\\Users\\Pranav Salunke\\Documents\\__School Work College\\2017-18\\Quarter 3 (Spring)\\CMPS 183\\Xplo\\web2py</div></td></tr><tr><td style="font-weight:bold;vertical-align:top;">http_accept</td><td style="vertical-align:top;">:</td><td><div>text/html,application/xhtml+xml,application/xml;q=0.9,image/webp,image/apng,*/*;q=0.8</div></td></tr><tr><td style="font-weight:bold;vertical-align:top;">http_accept_encoding</td><td style="vertical-align:top;">:</td><td><div>gzip, deflate, br</div></td></tr><tr><td style="font-weight:bold;vertical-align:top;">http_accept_language</td><td style="vertical-align:top;">:</td><td><div>en-US,en;q=0.9</div></td></tr><tr><td style="font-weight:bold;vertical-align:top;">http_cache_control</td><td style="vertical-align:top;">:</td><td><div>no-cache</div></td></tr><tr><td style="font-weight:bold;vertical-align:top;">http_connection</td><td style="vertical-align:top;">:</td><td><div>keep-alive</div></td></tr><tr><td style="font-weight:bold;vertical-align:top;">http_cookie</td><td style="vertical-align:top;">:</td><td><div>session_id_welcome=127.0.0.1-1f1949df-37ba-47f4-bc80-4207fad7abac; session_id_xploapp=&quot;1:8966b123-7883-4923-89d8-6a17c05e18a0&quot;</div></td></tr><tr><td style="font-weight:bold;vertical-align:top;">http_host</td><td style="vertical-align:top;">:</td><td><div>127.0.0.1:8000</div></td></tr><tr><td style="font-weight:bold;vertical-align:top;">http_pragma</td><td style="vertical-align:top;">:</td><td><div>no-cache</div></td></tr><tr><td style="font-weight:bold;vertical-align:top;">http_upgrade_insecure_requests</td><td style="vertical-align:top;">:</td><td><div>1</div></td></tr><tr><td style="font-weight:bold;vertical-align:top;">http_user_agent</td><td style="vertical-align:top;">:</td><td><div>Mozilla/5.0 (Windows NT 10.0; Win64; x64) AppleWebKit/537.36 (KHTML, like Gecko) Chrome/67.0.3396.79 Safari/537.36</div></td></tr><tr><td style="font-weight:bold;vertical-align:top;">is_jython</td><td style="vertical-align:top;">:</td><td><div>False</div></td></tr><tr><td style="font-weight:bold;vertical-align:top;">is_py2</td><td style="vertical-align:top;">:</td><td><div>True</div></td></tr><tr><td style="font-weight:bold;vertical-align:top;">is_pypy</td><td style="vertical-align:top;">:</td><td><div>False</div></td></tr><tr><td style="font-weight:bold;vertical-align:top;">is_source</td><td style="vertical-align:top;">:</td><td><div>True</div></td></tr><tr><td style="font-weight:bold;vertical-align:top;">local_hosts</td><td style="vertical-align:top;">:</td><td><div><table><tr><td><div>169.233.247.35</div></td></tr><tr><td><div>::ffff:127.0.0.1</div></td></tr><tr><td><div>::1</div></td></tr><tr><td><div>fe80::d145:9a06:1770:5148%7</div></td></tr><tr><td><div>DESKTOP-SIUTFAT.ucsc.edu</div></td></tr><tr><td><div>DESKTOP-SIUTFAT</div></td></tr><tr><td><div>127.0.0.1</div></td></tr></table></div></td></tr><tr><td style="font-weight:bold;vertical-align:top;">path_info</td><td style="vertical-align:top;">:</td><td><div>/XploAPP/default/index</div></td></tr><tr><td style="font-weight:bold;vertical-align:top;">query_string</td><td style="vertical-align:top;">:</td><td><div></div></td></tr><tr><td style="font-weight:bold;vertical-align:top;">remote_addr</td><td style="vertical-align:top;">:</td><td><div>127.0.0.1</div></td></tr><tr><td style="font-weight:bold;vertical-align:top;">remote_port</td><td style="vertical-align:top;">:</td><td><div>50443</div></td></tr><tr><td style="font-weight:bold;vertical-align:top;">request_method</td><td style="vertical-align:top;">:</td><td><div>GET</div></td></tr><tr><td style="font-weight:bold;vertical-align:top;">request_uri</td><td style="vertical-align:top;">:</td><td><div>/XploAPP/default/index</div></td></tr><tr><td style="font-weight:bold;vertical-align:top;">script_name</td><td style="vertical-align:top;">:</td><td><div></div></td></tr><tr><td style="font-weight:bold;vertical-align:top;">server_name</td><td style="vertical-align:top;">:</td><td><div>DESKTOP-SIUTFAT</div></td></tr><tr><td style="font-weight:bold;vertical-align:top;">server_port</td><td style="vertical-align:top;">:</td><td><div>8000</div></td></tr><tr><td style="font-weight:bold;vertical-align:top;">server_protocol</td><td style="vertical-align:top;">:</td><td><div>HTTP/1.1</div></td></tr><tr><td style="font-weight:bold;vertical-align:top;">server_software</td><td style="vertical-align:top;">:</td><td><div>Rocket 1.2.6</div></td></tr><tr><td style="font-weight:bold;vertical-align:top;">web2py_path</td><td style="vertical-align:top;">:</td><td><div>C:\\Users\\Pranav Salunke\\Documents\\__School Work College\\2017-18\\Quarter 3 (Spring)\\CMPS 183\\Xplo\\web2py</div></td></tr><tr><td style="font-weight:bold;vertical-align:top;">web2py_version</td><td style="vertical-align:top;">:</td><td><div>2.16.1-stable+timestamp.2017.11.14.05.54.25</div></td></tr><tr><td style="font-weight:bold;vertical-align:top;">wsgi.errors</td><td style="vertical-align:top;">:</td><td><div>&lt;open file &#x27;&lt;stderr&gt;&#x27;, mode &#x27;w&#x27; at 0x02FDD0D0&gt;</div></td></tr><tr><td style="font-weight:bold;vertical-align:top;">wsgi.file_wrapper</td><td style="vertical-align:top;">:</td><td><div>&lt;class wsgiref.util.FileWrapper at 0x03ECFA78&gt;</div></td></tr><tr><td style="font-weight:bold;vertical-align:top;">wsgi.input</td><td style="vertical-align:top;">:</td><td><div>&lt;socket._fileobject object at 0x03F09730&gt;</div></td></tr><tr><td style="font-weight:bold;vertical-align:top;">wsgi.multiprocess</td><td style="vertical-align:top;">:</td><td><div>False</div></td></tr><tr><td style="font-weight:bold;vertical-align:top;">wsgi.multithread</td><td style="vertical-align:top;">:</td><td><div>True</div></td></tr><tr><td style="font-weight:bold;vertical-align:top;">wsgi.run_once</td><td style="vertical-align:top;">:</td><td><div>False</div></td></tr><tr><td style="font-weight:bold;vertical-align:top;">wsgi.url_scheme</td><td style="vertical-align:top;">:</td><td><div>http</div></td></tr><tr><td style="font-weight:bold;vertical-align:top;">wsgi.version</td><td style="vertical-align:top;">:</td><td><div><table><tr><td><div>1</div></td></tr><tr><td><div>0</div></td></tr></table></div></td></tr><tr><td style="font-weight:bold;vertical-align:top;">wsgi_errors</td><td style="vertical-align:top;">:</td><td><div>&lt;open file &#x27;&lt;stderr&gt;&#x27;, mode &#x27;w&#x27; at 0x02FDD0D0&gt;</div></td></tr><tr><td style="font-weight:bold;vertical-align:top;">wsgi_file_wrapper</td><td style="vertical-align:top;">:</td><td><div>&lt;class wsgiref.util.FileWrapper at 0x03ECFA78&gt;</div></td></tr><tr><td style="font-weight:bold;vertical-align:top;">wsgi_input</td><td style="vertical-align:top;">:</td><td><div>&lt;socket._fileobject object at 0x03F09730&gt;</div></td></tr><tr><td style="font-weight:bold;vertical-align:top;">wsgi_multiprocess</td><td style="vertical-align:top;">:</td><td><div>False</div></td></tr><tr><td style="font-weight:bold;vertical-align:top;">wsgi_multithread</td><td style="vertical-align:top;">:</td><td><div>True</div></td></tr><tr><td style="font-weight:bold;vertical-align:top;">wsgi_run_once</td><td style="vertical-align:top;">:</td><td><div>False</div></td></tr><tr><td style="font-weight:bold;vertical-align:top;">wsgi_url_scheme</td><td style="vertical-align:top;">:</td><td><div>http</div></td></tr><tr><td style="font-weight:bold;vertical-align:top;">wsgi_version</td><td style="vertical-align:top;">:</td><td><div><table><tr><td><div>1</div></td></tr><tr><td><div>0</div></td></tr></table></div></td></tr></table></div></td></tr><tr><td style="font-weight:bold;vertical-align:top;">extension</td><td style="vertical-align:top;">:</td><td><div>html</div></td></tr><tr><td style="font-weight:bold;vertical-align:top;">folder</td><td style="vertical-align:top;">:</td><td><div>C:\\Users\\Pranav Salunke\\Documents\\__School Work College\\2017-18\\Quarter 3 (Spring)\\CMPS 183\\Xplo\\web2py\\applications\\XploAPP\\</div></td></tr><tr><td style="font-weight:bold;vertical-align:top;">function</td><td style="vertical-align:top;">:</td><td><div>index</div></td></tr><tr><td style="font-weight:bold;vertical-align:top;">global_settings</td><td style="vertical-align:top;">:</td><td><div><table><tr><td style="font-weight:bold;vertical-align:top;">app_folders</td><td style="vertical-align:top;">:</td><td><div>set([&#x27;C:\\\\Users\\\\Pranav Salunke\\\\Documents\\\\__School Work College\\\\2017-18\\\\Quarter 3 (Spring)\\\\CMPS 183\\\\Xplo\\\\web2py\\\\applications\\\\XploAPP\\\\&#x27;, &#x27;C:\\\\Users\\\\Pranav Salunke\\\\Documents\\\\__School Work College\\\\2017-18\\\\Quarter 3 (Spring)\\\\CMPS 183\\\\Xplo\\\\web2py\\\\applications\\\\welcome\\\\&#x27;])</div></td></tr><tr><td style="font-weight:bold;vertical-align:top;">applications_parent</td><td style="vertical-align:top;">:</td><td><div>C:\\Users\\Pranav Salunke\\Documents\\__School Work College\\2017-18\\Quarter 3 (Spring)\\CMPS 183\\Xplo\\web2py</div></td></tr><tr><td style="font-weight:bold;vertical-align:top;">cmd_args</td><td style="vertical-align:top;">:</td><td><div><table></table></div></td></tr><tr><td style="font-weight:bold;vertical-align:top;">cmd_options</td><td style="vertical-align:top;">:</td><td><div>&lt;Values at 0x3f03440: {&#x27;verbose&#x27;: False, &#x27;ip&#x27;: &#x27;127.0.0.1&#x27;, &#x27;debuglevel&#x27;: 30, &#x27;with_scheduler&#x27;: False, &#x27;shutdown_timeout&#x27;: 5, &#x27;taskbar&#x27;: False, &#x27;with_coverage&#x27;: False, &#x27;pid_filename&#x27;: &#x27;httpserver.pid&#x27;, &#x27;maxthreads&#x27;: None, &#x27;softcron&#x27;: False, &#x27;server_name&#x27;: &#x27;DESKTOP-SIUTFAT&#x27;, &#x27;bpython&#x27;: False, &#x27;nogui&#x27;: False, &#x27;port&#x27;: 8000, &#x27;print_errors&#x27;: True, &#x27;extcron&#x27;: False, &#x27;runcron&#x27;: False, &#x27;run_system_tests&#x27;: False, &#x27;test&#x27;: None, &#x27;folder&#x27;: &#x27;C:\\\\Users\\\\Pranav Salunke\\\\Documents\\\\__School Work College\\\\2017-18\\\\Quarter 3 (Spring)\\\\CMPS 183\\\\Xplo\\\\web2py&#x27;, &#x27;config&#x27;: &#x27;&#x27;, &#x27;minthreads&#x27;: None, &#x27;shell&#x27;: None, &#x27;run&#x27;: &#x27;&#x27;, &#x27;log_filename&#x27;: &#x27;httpserver.log&#x27;, &#x27;profiler_dir&#x27;: None, &#x27;args&#x27;: [&#x27;&#x27;], &#x27;socket_timeout&#x27;: 5, &#x27;ssl_ca_certificate&#x27;: None, &#x27;scheduler&#x27;: None, &#x27;interfaces&#x27;: None, &#x27;ssl_private_key&#x27;: &#x27;&#x27;, &#x27;gae&#x27;: None, &#x27;password&#x27;: &#x27;******&#x27;, &#x27;request_queue_size&#x27;: 5, &#x27;ssl_certificate&#x27;: &#x27;&#x27;, &#x27;cronjob&#x27;: False, &#x27;numthreads&#x27;: None, &#x27;quiet&#x27;: False, &#x27;import_models&#x27;: False, &#x27;timeout&#x27;: 10, &#x27;plain&#x27;: False, &#x27;nobanner&#x27;: False}&gt;</div></td></tr><tr><td style="font-weight:bold;vertical-align:top;">db_sessions</td><td style="vertical-align:top;">:</td><td><div>set([&#x27;XploAPP&#x27;])</div></td></tr><tr><td style="font-weight:bold;vertical-align:top;">debugging</td><td style="vertical-align:top;">:</td><td><div>False</div></td></tr><tr><td style="font-weight:bold;vertical-align:top;">gluon_parent</td><td style="vertical-align:top;">:</td><td><div>C:\\Users\\Pranav Salunke\\Documents\\__School Work College\\2017-18\\Quarter 3 (Spring)\\CMPS 183\\Xplo\\web2py</div></td></tr><tr><td style="font-weight:bold;vertical-align:top;">is_jython</td><td style="vertical-align:top;">:</td><td><div>False</div></td></tr><tr><td style="font-weight:bold;vertical-align:top;">is_py2</td><td style="vertical-align:top;">:</td><td><div>True</div></td></tr><tr><td style="font-weight:bold;vertical-align:top;">is_pypy</td><td style="vertical-align:top;">:</td><td><div>False</div></td></tr><tr><td style="font-weight:bold;vertical-align:top;">is_source</td><td style="vertical-align:top;">:</td><td><div>True</div></td></tr><tr><td style="font-weight:bold;vertical-align:top;">local_hosts</td><td style="vertical-align:top;">:</td><td><div><table><tr><td><div>169.233.247.35</div></td></tr><tr><td><div>::ffff:127.0.0.1</div></td></tr><tr><td><div>::1</div></td></tr><tr><td><div>fe80::d145:9a06:1770:5148%7</div></td></tr><tr><td><div>DESKTOP-SIUTFAT.ucsc.edu</div></td></tr><tr><td><div>DESKTOP-SIUTFAT</div></td></tr><tr><td><div>127.0.0.1</div></td></tr></table></div></td></tr><tr><td style="font-weight:bold;vertical-align:top;">web2py_version</td><td style="vertical-align:top;">:</td><td><div>2.16.1-stable+timestamp.2017.11.14.05.54.25</div></td></tr></table></div></td></tr><tr><td style="font-weight:bold;vertical-align:top;">is_https</td><td style="vertical-align:top;">:</td><td><div>False</div></td></tr><tr><td style="font-weight:bold;vertical-align:top;">is_local</td><td style="vertical-align:top;">:</td><td><div>True</div></td></tr><tr><td style="font-weight:bold;vertical-align:top;">is_restful</td><td style="vertical-align:top;">:</td><td><div>False</div></td></tr><tr><td style="font-weight:bold;vertical-align:top;">is_scheduler</td><td style="vertical-align:top;">:</td><td><div>False</div></td></tr><tr><td style="font-weight:bold;vertical-align:top;">is_shell</td><td style="vertical-align:top;">:</td><td><div>False</div></td></tr><tr><td style="font-weight:bold;vertical-align:top;">now</td><td style="vertical-align:top;">:</td><td><div>datetime.datetime(2018, 6, 7, 9, 58, 27, 808000)</div></td></tr><tr><td style="font-weight:bold;vertical-align:top;">raw_args</td><td style="vertical-align:top;">:</td><td><div></div></td></tr><tr><td style="font-weight:bold;vertical-align:top;">raw_extension</td><td style="vertical-align:top;">:</td><td><div>None</div></td></tr><tr><td style="font-weight:bold;vertical-align:top;">url</td><td style="vertical-align:top;">:</td><td><div>/XploAPP/default/index</div></td></tr><tr><td style="font-weight:bold;vertical-align:top;">utcnow</td><td style="vertical-align:top;">:</td><td><div>datetime.datetime(2018, 6, 7, 16, 58, 27, 808000)</div></td></tr><tr><td style="font-weight:bold;vertical-align:top;">wsgi</td><td style="vertical-align:top;">:</td><td><div>&lt;gluon.main.LazyWSGI object at 0x0AEE8550&gt;</div></td></tr></table></div>'
tRp60
sS'frames'
p61
(lp62
(dp63
S'file'
p64
S'C:\\Users\\Pranav Salunke\\Documents\\__School Work College\\2017-18\\Quarter 3 (Spring)\\CMPS 183\\Xplo\\web2py\\gluon\\restricted.py'
p65
sS'dump'
p66
(dp67
S'environment'
p68
S"{'A': <class 'gluon.html.A'>, 'ANY_OF': <class 'gluon.validators.ANY_OF'>, 'ASSIGNJS': <function ASSIGNJS>, 'AppConfig': <function AppConfig>, 'Auth': <class 'gluon.tools.Auth'>, 'B': <class 'gluon.html.B'>, 'BEAUTIFY': <class 'gluon.html.BEAUTIFY'>, 'BODY': <class 'gluon.html.BODY'>, 'BR': <class 'gluon.html.BR'>, 'BUTTON': <class 'gluon.html.BUTTON'>, ...}"
p69
sS'ccode'
p70
S'<code object <module> at 0ACE13C8, file "C:\\User...\\applications\\XploAPP\\models\\tables.py", line 10>'
p71
ssS'lnum'
p72
I219
sS'lines'
p73
(dp74
I214
S'    if environment is None:'
p75
sI215
S'        environment = {}'
p76
sI216
S"    environment['__file__'] = layer"
p77
sI217
S"    environment['__name__'] = '__restricted__'"
p78
sI218
S'    try:'
p79
sI219
S'        exec(ccode, environment)'
p80
sI220
S'    except HTTP:'
p81
sI221
S'        raise'
p82
sI222
S'    except RestrictedError:'
p83
sI223
S'        # do not encapsulate (obfuscate) the original RestrictedError'
p84
ssS'call'
p85
S'(ccode=<code object <module> at 0ACE13C8, file "C:\\User...\\applications\\XploAPP\\models\\tables.py", line 10>, environment={\'A\': <class \'gluon.html.A\'>, \'ANY_OF\': <class \'gluon.validators.ANY_OF\'>, \'ASSIGNJS\': <function ASSIGNJS>, \'AppConfig\': <function AppConfig>, \'Auth\': <class \'gluon.tools.Auth\'>, \'B\': <class \'gluon.html.B\'>, \'BEAUTIFY\': <class \'gluon.html.BEAUTIFY\'>, \'BODY\': <class \'gluon.html.BODY\'>, \'BR\': <class \'gluon.html.BR\'>, \'BUTTON\': <class \'gluon.html.BUTTON\'>, ...}, layer=r\'C:\\Users\\Pranav Salunke\\Documents\\__School Work ...Xplo\\web2py\\applications\\XploAPP\\models\\tables.py\', scode=<code object <module> at 0ACE13C8, file "C:\\User...\\applications\\XploAPP\\models\\tables.py", line 10>)'
p86
sS'func'
p87
S'restricted'
p88
sa(dp89
g64
S'C:\\Users\\Pranav Salunke\\Documents\\__School Work College\\2017-18\\Quarter 3 (Spring)\\CMPS 183\\Xplo\\web2py\\applications\\XploAPP\\models\\tables.py'
p90
sg66
(dp91
S'Field'
p92
S"<class 'pydal.objects.Field'>"
p93
ssg72
I22
sg73
(dp94
I17
S"                Field('created_on', 'datetime', default=request.now),"
p95
sI18
S"                Field('created_by' ,'reference auth_user', default=auth.user_id),"
p96
sI19
S"                Field('title', 'text'),"
p97
sI20
S"                Field('body', 'text'),"
p98
sI21
S"                Field('latitude'),"
p99
sI22
S"                Field('longitude')"
p100
sI23
S'                )'
p101
sI24
S''
sI25
S'# db.checklist.user_email.writable = False'
p102
sI26
S'# db.checklist.user_email.readable = False'
p103
ssg85
S'()'
p104
sg87
S'<module>'
p105
sa(dp106
g64
S'C:\\Users\\Pranav Salunke\\Documents\\__School Work College\\2017-18\\Quarter 3 (Spring)\\CMPS 183\\Xplo\\web2py\\gluon\\packages\\dal\\pydal\\base.py'
p107
sg66
(dp108
S'fields'
p109
S'(<pydal.objects.Field object>, <pydal.objects.Field object>, <pydal.objects.Field object>, <pydal.objects.Field object>, <pydal.objects.Field object>, <pydal.objects.Field object>)'
p110
sS'self'
p111
S'<DAL uri="sqlite://storage.sqlite">'
p112
sS'args'
p113
g19
sS'tablename'
p114
S"'user_stories'"
p115
sS'table'
p116
S'undefined'
p117
sS'self.lazy_define_table'
p118
S'<bound method DAL.lazy_define_table of <DAL uri="sqlite://storage.sqlite">>'
p119
ssg72
I586
sg73
(dp120
I581
S'                                  (tablename, invalid_args))'
p121
sI582
S'        if self._lazy_tables and tablename not in self._LAZY_TABLES:'
p122
sI583
S'            self._LAZY_TABLES[tablename] = (tablename, fields, args)'
p123
sI584
S'            table = None'
p124
sI585
S'        else:'
p125
sI586
S'            table = self.lazy_define_table(tablename, *fields, **args)'
p126
sI587
S'        if tablename not in self.tables:'
p127
sI588
S'            self.tables.append(tablename)'
p128
sI589
S'        return table'
p129
sI590
S''
ssg85
S'(self=<DAL uri="sqlite://storage.sqlite">, tablename=\'user_stories\', *fields=(<pydal.objects.Field object>, <pydal.objects.Field object>, <pydal.objects.Field object>, <pydal.objects.Field object>, <pydal.objects.Field object>, <pydal.objects.Field object>), **args={})'
p130
sg87
S'define_table'
p131
sa(dp132
g64
S'C:\\Users\\Pranav Salunke\\Documents\\__School Work College\\2017-18\\Quarter 3 (Spring)\\CMPS 183\\Xplo\\web2py\\gluon\\packages\\dal\\pydal\\base.py'
p133
sg66
(dp134
S'polymodel'
p135
S'None'
p136
ssg72
I620
sg73
(dp137
I615
S'            try:'
p138
sI616
S'                GLOBAL_LOCKER.acquire()'
p139
sI617
S'                self._adapter.create_table('
p140
sI618
S'                    table, migrate=migrate,'
p141
sI619
S'                    fake_migrate=fake_migrate,'
p142
sI620
S'                    polymodel=polymodel)'
p143
sI621
S'            finally:'
p144
sI622
S'                GLOBAL_LOCKER.release()'
p145
sI623
S'        else:'
p146
sI624
S'            table._dbt = None'
p147
ssg85
S'(self=<DAL uri="sqlite://storage.sqlite">, tablename=\'user_stories\', *fields=(<pydal.objects.Field object>, <pydal.objects.Field object>, <pydal.objects.Field object>, <pydal.objects.Field object>, <pydal.objects.Field object>, <pydal.objects.Field object>), **args={})'
p148
sg87
S'lazy_define_table'
p149
sa(dp150
g64
S'C:\\Users\\Pranav Salunke\\Documents\\__School Work College\\2017-18\\Quarter 3 (Spring)\\CMPS 183\\Xplo\\web2py\\gluon\\packages\\dal\\pydal\\adapters\\base.py'
p151
sg66
(dp152
S'self'
p153
S'<pydal.adapters.sqlite.SQLite object>'
p154
sS'args'
p155
S'(<Table user_stories (id, created_on, created_by, title, body, latitude, longitude)>,)'
p156
sS'self.migrator'
p157
S'<pydal.migrator.Migrator object>'
p158
sS'self.migrator.create_table'
p159
S'<bound method Migrator.create_table of <pydal.migrator.Migrator object>>'
p160
sS'kwargs'
p161
S"{'fake_migrate': False, 'migrate': True, 'polymodel': None}"
p162
ssg72
I797
sg73
(dp163
I800
S'        super(SQLAdapter, self)._drop_table_cleanup(table)'
p164
sI801
S'        if table._dbt:'
p165
sI792
S''
sI793
S'    def bulk_insert(self, table, items):'
p166
sI794
S'        return [self.insert(table, item) for item in items]'
p167
sI795
S''
sI796
S'    def create_table(self, *args, **kwargs):'
p168
sI797
S'        return self.migrator.create_table(*args, **kwargs)'
p169
sI798
S''
sI799
S'    def _drop_table_cleanup(self, table):'
p170
ssg85
S"(self=<pydal.adapters.sqlite.SQLite object>, *args=(<Table user_stories (id, created_on, created_by, title, body, latitude, longitude)>,), **kwargs={'fake_migrate': False, 'migrate': True, 'polymodel': None})"
p171
sg87
S'create_table'
p172
sa(dp173
g64
S'C:\\Users\\Pranav Salunke\\Documents\\__School Work College\\2017-18\\Quarter 3 (Spring)\\CMPS 183\\Xplo\\web2py\\gluon\\packages\\dal\\pydal\\migrator.py'
p174
sg66
(dp175
S'global pickle'
p176
S"<module 'pickle' from 'C:\\Python27\\lib\\pickle.pyc'>"
p177
sS'tfile'
p178
S'<pydal.contrib.portalocker.LockedFile object>'
p179
sS'sql_fields_old'
p180
g117
sS'pickle.load'
p181
S'<function load>'
p182
ssg72
I295
sg73
(dp183
I290
S'                else:'
p184
sI291
S"                    self.log('success!\\n', table)"
p185
sI292
S'        else:'
p186
sI293
S"            tfile = self.file_open(table._dbt, 'rb')"
p187
sI294
S'            try:'
p188
sI295
S'                sql_fields_old = pickle.load(tfile)'
p189
sI296
S'            except EOFError:'
p190
sI297
S'                self.file_close(tfile)'
p191
sI298
S"                raise RuntimeError('File %s appears corrupted' % table._dbt)"
p192
sI299
S'            self.file_close(tfile)'
p193
ssg85
S'(self=<pydal.migrator.Migrator object>, table=<Table user_stories (id, created_on, created_by, title, body, latitude, longitude)>, migrate=True, fake_migrate=False, polymodel=None)'
p194
sg87
g172
sa(dp195
g64
S'C:\\Python27\\lib\\pickle.py'
p196
sg66
(dp197
S'global Unpickler'
p198
S'<class pickle.Unpickler>'
p199
sS').load'
p200
g117
sS'file'
p201
S'<pydal.contrib.portalocker.LockedFile object>'
p202
ssg72
I1384
sg73
(dp203
I1379
S'    file = StringIO()'
p204
sI1380
S'    Pickler(file, protocol).dump(obj)'
p205
sI1381
S'    return file.getvalue()'
p206
sI1382
S''
sI1383
S'def load(file):'
p207
sI1384
S'    return Unpickler(file).load()'
p208
sI1385
S''
sI1386
S'def loads(str):'
p209
sI1387
S'    file = StringIO(str)'
p210
sI1388
S'    return Unpickler(file).load()'
p211
ssg85
S'(file=<pydal.contrib.portalocker.LockedFile object>)'
p212
sg87
S'load'
p213
sa(dp214
g64
S'C:\\Python27\\lib\\pickle.py'
p215
sg66
(dp216
S'self'
p217
S'<pickle.Unpickler instance>'
p218
sS'key'
p219
S"'S'"
p220
sS'dispatch'
p221
S"{'': <function load_eof>, '(': <function load_mark>, ')': <function load_empty_tuple>, '.': <function load_stop>, '0': <function load_pop>, '1': <function load_pop_mark>, '2': <function load_dup>, 'F': <function load_float>, 'G': <function load_binfloat>, 'I': <function load_int>, ...}"
p222
ssg72
I864
sg73
(dp223
I864
S'                dispatch[key](self)'
p224
sI865
S'        except _Stop, stopinst:'
p225
sI866
S'            return stopinst.value'
p226
sI867
S''
sI868
S'    # Return largest index k such that self.stack[k] is self.mark.'
p227
sI859
S'        read = self.read'
p228
sI860
S'        dispatch = self.dispatch'
p229
sI861
S'        try:'
p230
sI862
S'            while 1:'
p231
sI863
S'                key = read(1)'
p232
ssg85
S'(self=<pickle.Unpickler instance>)'
p233
sg87
g213
sa(dp234
g64
S'C:\\Python27\\lib\\pickle.py'
p235
sg66
(dp236
S'builtinValueError'
p237
S"<type 'exceptions.ValueError'>"
p238
ssg72
I972
sg73
(dp239
I967
S'    def load_string(self):'
p240
sI968
S'        rep = self.readline()[:-1]'
p241
sI969
S'        for q in "\\"\'": # double or single quote'
p242
sI970
S'            if rep.startswith(q):'
p243
sI971
S'                if len(rep) < 2 or not rep.endswith(q):'
p244
sI972
S'                    raise ValueError, "insecure string pickle"'
p245
sI973
S'                rep = rep[len(q):-len(q)]'
p246
sI974
S'                break'
p247
sI975
S'        else:'
p248
sI976
S'            raise ValueError, "insecure string pickle"'
p249
ssg85
S'(self=<pickle.Unpickler instance>)'
p250
sg87
S'load_string'
p251
sasS'pyver'
p252
S'Python 2.7.14: C:\\Python27\\python.exe (prefix: C:\\Python27)'
p253
sS'session'
p254
g59
(S's\x1a\x00\x00\x00<div><table></table></div>'
tRp255
sS'etype'
p256
S"<type 'exceptions.ValueError'>"
p257
sS'date'
p258
S'Thu Jun 07 09:58:28 2018'
p259
sS'response'
p260
g59
(S's<\x1a\x00\x00<div><table><tr><td style="font-weight:bold;vertical-align:top;">body</td><td style="vertical-align:top;">:</td><td><div>&lt;cStringIO.StringO object at 0x0ACE9BC0&gt;</div></td></tr><tr><td style="font-weight:bold;vertical-align:top;">cookies</td><td style="vertical-align:top;">:</td><td><div><table></table></div></td></tr><tr><td style="font-weight:bold;vertical-align:top;">delimiters</td><td style="vertical-align:top;">:</td><td><div><table><tr><td><div>{{</div></td></tr><tr><td><div>}}</div></td></tr></table></div></td></tr><tr><td style="font-weight:bold;vertical-align:top;">files</td><td style="vertical-align:top;">:</td><td><div><table></table></div></td></tr><tr><td style="font-weight:bold;vertical-align:top;">flash</td><td style="vertical-align:top;">:</td><td><div></div></td></tr><tr><td style="font-weight:bold;vertical-align:top;">form_label_separator</td><td style="vertical-align:top;">:</td><td><div></div></td></tr><tr><td style="font-weight:bold;vertical-align:top;">formstyle</td><td style="vertical-align:top;">:</td><td><div>bootstrap3_inline</div></td></tr><tr><td style="font-weight:bold;vertical-align:top;">generic_patterns</td><td style="vertical-align:top;">:</td><td><div><table><tr><td><div>*</div></td></tr></table></div></td></tr><tr><td style="font-weight:bold;vertical-align:top;">google_analytics_id</td><td style="vertical-align:top;">:</td><td><div>None</div></td></tr><tr><td style="font-weight:bold;vertical-align:top;">headers</td><td style="vertical-align:top;">:</td><td><div><table><tr><td style="font-weight:bold;vertical-align:top;">X-Powered-By</td><td style="vertical-align:top;">:</td><td><div>web2py</div></td></tr></table></div></td></tr><tr><td style="font-weight:bold;vertical-align:top;">logo</td><td style="vertical-align:top;">:</td><td><div><a class="navbar-brand" href="http://www.web2py.com/" id="web2py-logo"><b>web<span>2</span>py</b>&trade;&nbsp;</a></div></td></tr><tr><td style="font-weight:bold;vertical-align:top;">menu</td><td style="vertical-align:top;">:</td><td><div><table><tr><td><div><table><tr><td><div>Home</div></td></tr><tr><td><div>False</div></td></tr><tr><td><div>/XploAPP/default/index</div></td></tr><tr><td><div><table></table></div></td></tr></table></div></td></tr><tr><td><div><table><tr><td><div>My Sites</div></td></tr><tr><td><div>False</div></td></tr><tr><td><div>/admin/default/site</div></td></tr></table></div></td></tr><tr><td><div><table><tr><td><div>Sample Menu 1</div></td></tr><tr><td><div>False</div></td></tr><tr><td><div>#</div></td></tr><tr><td><div><table><tr><td><div><table><tr><td><div>Entry1</div></td></tr><tr><td><div>False</div></td></tr><tr><td><div>/XploAPP/default/entry1</div></td></tr></table></div></td></tr><tr><td><div><table><tr><td><div>Entry2</div></td></tr><tr><td><div>False</div></td></tr><tr><td><div>/XploAPP/default/entry2</div></td></tr></table></div></td></tr></table></div></td></tr></table></div></td></tr><tr><td><div><table><tr><td><div>Sample Menu 2</div></td></tr><tr><td><div>False</div></td></tr><tr><td><div>/XploAPP/default/index</div></td></tr></table></div></td></tr></table></div></td></tr><tr><td style="font-weight:bold;vertical-align:top;">meta</td><td style="vertical-align:top;">:</td><td><div><table><tr><td style="font-weight:bold;vertical-align:top;">author</td><td style="vertical-align:top;">:</td><td><div>Your Name &lt;you@example.com&gt;</div></td></tr><tr><td style="font-weight:bold;vertical-align:top;">description</td><td style="vertical-align:top;">:</td><td><div>a cool new app</div></td></tr><tr><td style="font-weight:bold;vertical-align:top;">generator</td><td style="vertical-align:top;">:</td><td><div>Web2py Web Framework</div></td></tr><tr><td style="font-weight:bold;vertical-align:top;">keywords</td><td style="vertical-align:top;">:</td><td><div><table><tr><td><div>web2py</div></td></tr><tr><td><div>python</div></td></tr><tr><td><div>framework</div></td></tr></table></div></td></tr></table></div></td></tr><tr><td style="font-weight:bold;vertical-align:top;">models_to_run</td><td style="vertical-align:top;">:</td><td><div><table><tr><td><div>^\\w+\\.py$</div></td></tr><tr><td><div>^default/\\w+\\.py$</div></td></tr><tr><td><div>^default/index/\\w+\\.py$</div></td></tr></table></div></td></tr><tr><td style="font-weight:bold;vertical-align:top;">postprocessing</td><td style="vertical-align:top;">:</td><td><div><table></table></div></td></tr><tr><td style="font-weight:bold;vertical-align:top;">session_client</td><td style="vertical-align:top;">:</td><td><div>127.0.0.1</div></td></tr><tr><td style="font-weight:bold;vertical-align:top;">session_cookie_compression_level</td><td style="vertical-align:top;">:</td><td><div>None</div></td></tr><tr><td style="font-weight:bold;vertical-align:top;">session_cookie_expires</td><td style="vertical-align:top;">:</td><td><div>None</div></td></tr><tr><td style="font-weight:bold;vertical-align:top;">session_data_name</td><td style="vertical-align:top;">:</td><td><div>session_data_xploapp</div></td></tr><tr><td style="font-weight:bold;vertical-align:top;">session_db_table</td><td style="vertical-align:top;">:</td><td><div>&lt;Table web2py_session_XploAPP (id, locked, client_ip, created_datetime, modified_datetime, unique_key, session_data)&gt;</div></td></tr><tr><td style="font-weight:bold;vertical-align:top;">session_hash</td><td style="vertical-align:top;">:</td><td><div>c0762cbf4baf7f9af97c051e7fcb8083</div></td></tr><tr><td style="font-weight:bold;vertical-align:top;">session_id</td><td style="vertical-align:top;">:</td><td><div>None</div></td></tr><tr><td style="font-weight:bold;vertical-align:top;">session_id_name</td><td style="vertical-align:top;">:</td><td><div>session_id_xploapp</div></td></tr><tr><td style="font-weight:bold;vertical-align:top;">session_masterapp</td><td style="vertical-align:top;">:</td><td><div>XploAPP</div></td></tr><tr><td style="font-weight:bold;vertical-align:top;">session_new</td><td style="vertical-align:top;">:</td><td><div>True</div></td></tr><tr><td style="font-weight:bold;vertical-align:top;">session_storage_type</td><td style="vertical-align:top;">:</td><td><div>db</div></td></tr><tr><td style="font-weight:bold;vertical-align:top;">status</td><td style="vertical-align:top;">:</td><td><div>200</div></td></tr><tr><td style="font-weight:bold;vertical-align:top;">subtitle</td><td style="vertical-align:top;">:</td><td><div></div></td></tr><tr><td style="font-weight:bold;vertical-align:top;">title</td><td style="vertical-align:top;">:</td><td><div>Xploapp</div></td></tr><tr><td style="font-weight:bold;vertical-align:top;">view</td><td style="vertical-align:top;">:</td><td><div>default/index.html</div></td></tr></table></div>'
tRp261
sS'locals'
p262
(dp263
S'q'
S'"\'"'
p264
sS'rep'
p265
S'"\'body\'\\r"'
p266
sS'self'
p267
S'<pickle.Unpickler instance>'
p268
sssS'traceback'
p269
S'Traceback (most recent call last):\n  File "C:\\Users\\Pranav Salunke\\Documents\\__School Work College\\2017-18\\Quarter 3 (Spring)\\CMPS 183\\Xplo\\web2py\\gluon\\restricted.py", line 219, in restricted\n    exec(ccode, environment)\n  File "C:\\Users\\Pranav Salunke\\Documents\\__School Work College\\2017-18\\Quarter 3 (Spring)\\CMPS 183\\Xplo\\web2py\\applications\\XploAPP\\models\\tables.py", line 22, in <module>\n    Field(\'longitude\')\n  File "C:\\Users\\Pranav Salunke\\Documents\\__School Work College\\2017-18\\Quarter 3 (Spring)\\CMPS 183\\Xplo\\web2py\\gluon\\packages\\dal\\pydal\\base.py", line 586, in define_table\n    table = self.lazy_define_table(tablename, *fields, **args)\n  File "C:\\Users\\Pranav Salunke\\Documents\\__School Work College\\2017-18\\Quarter 3 (Spring)\\CMPS 183\\Xplo\\web2py\\gluon\\packages\\dal\\pydal\\base.py", line 620, in lazy_define_table\n    polymodel=polymodel)\n  File "C:\\Users\\Pranav Salunke\\Documents\\__School Work College\\2017-18\\Quarter 3 (Spring)\\CMPS 183\\Xplo\\web2py\\gluon\\packages\\dal\\pydal\\adapters\\base.py", line 797, in create_table\n    return self.migrator.create_table(*args, **kwargs)\n  File "C:\\Users\\Pranav Salunke\\Documents\\__School Work College\\2017-18\\Quarter 3 (Spring)\\CMPS 183\\Xplo\\web2py\\gluon\\packages\\dal\\pydal\\migrator.py", line 295, in create_table\n    sql_fields_old = pickle.load(tfile)\n  File "C:\\Python27\\lib\\pickle.py", line 1384, in load\n    return Unpickler(file).load()\n  File "C:\\Python27\\lib\\pickle.py", line 864, in load\n    dispatch[key](self)\n  File "C:\\Python27\\lib\\pickle.py", line 972, in load_string\n    raise ValueError, "insecure string pickle"\nValueError: insecure string pickle\n'
p270
s.